target datalayout = "e-m:e-p270:32:32-p271:32:32-p272:64:64-i64:64-i128:128-f80:128-n8:16:32:64-S128"
target triple = "x86_64-pc-linux-gnu"

%struct.pointf_s = type { double, double }
%struct.GVJ_s = type { ptr, ptr, ptr, ptr, ptr, ptr, i32, ptr, ptr, ptr, ptr, i64, i64, ptr, i32, %struct.gvplugin_active_render_s, %struct.gvplugin_active_device_s, %struct.gvplugin_active_loadimage_t, ptr, %struct.pointf_s, i8, ptr, i32, ptr, i8, ptr, i32, i32, i32, %struct.point, %struct.point, %struct.point, %struct.point, %struct.point, i32, %struct.boxf, %struct.pointf_s, %struct.boxf, %struct.boxf, %struct.pointf_s, %struct.pointf_s, double, i32, %struct.pointf_s, %struct.boxf, %struct.pointf_s, %struct.pointf_s, i32, i32, %struct.box, %struct.box, %struct.pointf_s, %struct.pointf_s, %struct.pointf_s, i8, i8, i8, i8, i8, i8, %struct.pointf_s, %struct.pointf_s, ptr, ptr, ptr, ptr, ptr, ptr, i64, ptr }
%struct.gvplugin_active_render_s = type { ptr, i32, ptr, ptr }
%struct.gvplugin_active_device_s = type { ptr, i32, ptr, ptr }
%struct.gvplugin_active_loadimage_t = type { ptr, i32, ptr }
%struct.point = type { i32, i32 }
%struct.boxf = type { %struct.pointf_s, %struct.pointf_s }
%struct.box = type { %struct.point, %struct.point }
%struct.obj_state_s = type { ptr, i32, %union.anon, i32, %struct.color_s, %struct.color_s, %struct.color_s, i32, double, i32, i32, double, ptr, double, double, double, ptr, ptr, ptr, ptr, ptr, ptr, ptr, ptr, ptr, ptr, ptr, ptr, ptr, ptr, ptr, ptr, ptr, i16, i32, i64, ptr, i64, ptr, ptr, i32, ptr, i32, ptr }
%union.anon = type { ptr }
%struct.color_s = type { %union.anon.0, i32 }
%union.anon.0 = type { [4 x double] }

@.str.3 = private unnamed_addr constant [2 x i8] c"#\00", align 1
@.str.4 = private unnamed_addr constant [11 x i8] c" Title: %s\00", align 1
@.str.5 = private unnamed_addr constant [12 x i8] c" Pages: %d\0A\00", align 1
@first_periphery = internal global i32 0, align 4

; Function Attrs: nounwind uwtable
define internal void @tkgen_begin_graph(ptr noundef %0) #0 {
  %2 = alloca ptr, align 8
  %3 = alloca ptr, align 8
  store ptr %0, ptr %2, align 8, !tbaa !3
  call void @llvm.lifetime.start.p0(i64 8, ptr %3) #6
  %4 = load ptr, ptr %2, align 8, !tbaa !3
  %5 = getelementptr inbounds nuw %struct.GVJ_s, ptr %4, i32 0, i32 4
  %6 = load ptr, ptr %5, align 8, !tbaa !35
  store ptr %6, ptr %3, align 8, !tbaa !36
  %7 = load ptr, ptr %2, align 8, !tbaa !3
  %8 = call i32 @gvputs(ptr noundef %7, ptr noundef @.str.3)
  %9 = load ptr, ptr %3, align 8, !tbaa !36
  %10 = getelementptr inbounds nuw %struct.obj_state_s, ptr %9, i32 0, i32 2
  %11 = load ptr, ptr %10, align 8, !tbaa !37
  %12 = call ptr @agnameof(ptr noundef %11)
  %13 = getelementptr inbounds i8, ptr %12, i64 0
  %14 = load i8, ptr %13, align 1, !tbaa !37
  %15 = icmp ne i8 %14, 0
  br i1 %15, label %16, label %22

16:                                               ; preds = %1
  %17 = load ptr, ptr %2, align 8, !tbaa !3
  %18 = load ptr, ptr %3, align 8, !tbaa !36
  %19 = getelementptr inbounds nuw %struct.obj_state_s, ptr %18, i32 0, i32 2
  %20 = load ptr, ptr %19, align 8, !tbaa !37
  %21 = call ptr @agnameof(ptr noundef %20)
  call void (ptr, ptr, ...) @gvprintf(ptr noundef %17, ptr noundef @.str.4, ptr noundef %21)
  br label %22

22:                                               ; preds = %16, %1
  %23 = load ptr, ptr %2, align 8, !tbaa !3
  %24 = load ptr, ptr %2, align 8, !tbaa !3
  %25 = getelementptr inbounds nuw %struct.GVJ_s, ptr %24, i32 0, i32 29
  %26 = getelementptr inbounds nuw %struct.point, ptr %25, i32 0, i32 0
  %27 = load i32, ptr %26, align 4, !tbaa !38
  %28 = load ptr, ptr %2, align 8, !tbaa !3
  %29 = getelementptr inbounds nuw %struct.GVJ_s, ptr %28, i32 0, i32 29
  %30 = getelementptr inbounds nuw %struct.point, ptr %29, i32 0, i32 1
  %31 = load i32, ptr %30, align 4, !tbaa !39
  %32 = mul nsw i32 %27, %31
  call void (ptr, ptr, ...) @gvprintf(ptr noundef %23, ptr noundef @.str.5, i32 noundef %32)
  store i32 0, ptr @first_periphery, align 4, !tbaa !40
  call void @llvm.lifetime.end.p0(i64 8, ptr %3) #6
  ret void
}