; Function Attrs: nounwind uwtable
define internal void @tkgen_begin_graph(ptr noundef %0) #0 {
  %2 = getelementptr inbounds nuw i8, ptr %0, i64 32
  %3 = load ptr, ptr %2, align 8, !tbaa !34
  %4 = tail call i32 @gvputs(ptr noundef %0, ptr noundef nonnull @.str.3) #6
  %5 = getelementptr inbounds nuw i8, ptr %3, i64 16
  %6 = load ptr, ptr %5, align 8, !tbaa !35
  %7 = tail call ptr @agnameof(ptr noundef %6) #6
  %8 = load i8, ptr %7, align 1, !tbaa !35
  %.not = icmp eq i8 %8, 0
  br i1 %.not, label %12, label %9

9:                                                ; preds = %1
  %10 = load ptr, ptr %5, align 8, !tbaa !35
  %11 = tail call ptr @agnameof(ptr noundef %10) #6
  tail call void (ptr, ptr, ...) @gvprintf(ptr noundef nonnull %0, ptr noundef nonnull @.str.4, ptr noundef %11) #6
  br label %12

12:                                               ; preds = %9, %1
  %13 = getelementptr inbounds nuw i8, ptr %0, i64 292
  %14 = load i32, ptr %13, align 4, !tbaa !36
  %15 = getelementptr inbounds nuw i8, ptr %0, i64 296
  %16 = load i32, ptr %15, align 4, !tbaa !37
  %17 = mul nsw i32 %16, %14
  tail call void (ptr, ptr, ...) @gvprintf(ptr noundef nonnull %0, ptr noundef nonnull @.str.5, i32 noundef %17) #6
  store i32 0, ptr @first_periphery, align 4, !tbaa !38
  ret void
}